target datalayout = "e-m:e-p270:32:32-p271:32:32-p272:64:64-i64:64-i128:128-f80:128-n8:16:32:64-S128"
target triple = "x86_64-pc-linux-gnu"

%struct.lua_TValue = type { %union.Value, [1 x i32], i32 }
%union.Value = type { ptr }

; Function Attrs: mustprogress nounwind uwtable
define internal noundef i32 @_ZL15luauF_vectordotP9lua_StateP10lua_TValueS2_iS2_i(ptr noundef %0, ptr noundef %1, ptr noundef %2, i32 noundef %3, ptr noundef %4, i32 noundef %5) #0 {
  %7 = alloca i32, align 4
  %8 = alloca ptr, align 8
  %9 = alloca ptr, align 8
  %10 = alloca ptr, align 8
  %11 = alloca i32, align 4
  %12 = alloca ptr, align 8
  %13 = alloca i32, align 4
  %14 = alloca ptr, align 8
  %15 = alloca ptr, align 8
  %16 = alloca ptr, align 8
  store ptr %0, ptr %8, align 8, !tbaa !4
  store ptr %1, ptr %9, align 8, !tbaa !9
  store ptr %2, ptr %10, align 8, !tbaa !9
  store i32 %3, ptr %11, align 4, !tbaa !11
  store ptr %4, ptr %12, align 8, !tbaa !9
  store i32 %5, ptr %13, align 4, !tbaa !11
  %17 = load i32, ptr %13, align 4, !tbaa !11
  %18 = icmp sge i32 %17, 2
  br i1 %18, label %19, label %66

19:                                               ; preds = %6
  %20 = load i32, ptr %11, align 4, !tbaa !11
  %21 = icmp sle i32 %20, 1
  br i1 %21, label %22, label %66

22:                                               ; preds = %19
  %23 = load ptr, ptr %10, align 8, !tbaa !9
  %24 = getelementptr inbounds nuw %struct.lua_TValue, ptr %23, i32 0, i32 2
  %25 = load i32, ptr %24, align 4, !tbaa !13
  %26 = icmp eq i32 %25, 4
  br i1 %26, label %27, label %66

27:                                               ; preds = %22
  %28 = load ptr, ptr %12, align 8, !tbaa !9
  %29 = getelementptr inbounds nuw %struct.lua_TValue, ptr %28, i32 0, i32 2
  %30 = load i32, ptr %29, align 4, !tbaa !13
  %31 = icmp eq i32 %30, 4
  br i1 %31, label %32, label %66

32:                                               ; preds = %27
  call void @llvm.lifetime.start.p0(i64 8, ptr %14) #17
  %33 = load ptr, ptr %10, align 8, !tbaa !9
  %34 = getelementptr inbounds nuw %struct.lua_TValue, ptr %33, i32 0, i32 0
  %35 = getelementptr inbounds [2 x float], ptr %34, i64 0, i64 0
  store ptr %35, ptr %14, align 8, !tbaa !72
  call void @llvm.lifetime.start.p0(i64 8, ptr %15) #17
  %36 = load ptr, ptr %12, align 8, !tbaa !9
  %37 = getelementptr inbounds nuw %struct.lua_TValue, ptr %36, i32 0, i32 0
  %38 = getelementptr inbounds [2 x float], ptr %37, i64 0, i64 0
  store ptr %38, ptr %15, align 8, !tbaa !72
  call void @llvm.lifetime.start.p0(i64 8, ptr %16) #17
  %39 = load ptr, ptr %9, align 8, !tbaa !9
  store ptr %39, ptr %16, align 8, !tbaa !9
  %40 = load ptr, ptr %14, align 8, !tbaa !72
  %41 = getelementptr inbounds float, ptr %40, i64 0
  %42 = load float, ptr %41, align 4, !tbaa !70
  %43 = load ptr, ptr %15, align 8, !tbaa !72
  %44 = getelementptr inbounds float, ptr %43, i64 0
  %45 = load float, ptr %44, align 4, !tbaa !70
  %46 = load ptr, ptr %14, align 8, !tbaa !72
  %47 = getelementptr inbounds float, ptr %46, i64 1
  %48 = load float, ptr %47, align 4, !tbaa !70
  %49 = load ptr, ptr %15, align 8, !tbaa !72
  %50 = getelementptr inbounds float, ptr %49, i64 1
  %51 = load float, ptr %50, align 4, !tbaa !70
  %52 = fmul float %48, %51
  %53 = call float @llvm.fmuladd.f32(float %42, float %45, float %52)
  %54 = load ptr, ptr %14, align 8, !tbaa !72
  %55 = getelementptr inbounds float, ptr %54, i64 2
  %56 = load float, ptr %55, align 4, !tbaa !70
  %57 = load ptr, ptr %15, align 8, !tbaa !72
  %58 = getelementptr inbounds float, ptr %57, i64 2
  %59 = load float, ptr %58, align 4, !tbaa !70
  %60 = call float @llvm.fmuladd.f32(float %56, float %59, float %53)
  %61 = fpext float %60 to double
  %62 = load ptr, ptr %16, align 8, !tbaa !9
  %63 = getelementptr inbounds nuw %struct.lua_TValue, ptr %62, i32 0, i32 0
  store double %61, ptr %63, align 8, !tbaa !15
  %64 = load ptr, ptr %16, align 8, !tbaa !9
  %65 = getelementptr inbounds nuw %struct.lua_TValue, ptr %64, i32 0, i32 2
  store i32 3, ptr %65, align 4, !tbaa !13
  call void @llvm.lifetime.end.p0(i64 8, ptr %16) #17
  store i32 1, ptr %7, align 4
  call void @llvm.lifetime.end.p0(i64 8, ptr %15) #17
  call void @llvm.lifetime.end.p0(i64 8, ptr %14) #17
  br label %67

66:                                               ; preds = %27, %22, %19, %6
  store i32 -1, ptr %7, align 4
  br label %67

67:                                               ; preds = %66, %32
  %68 = load i32, ptr %7, align 4
  ret i32 %68
}