; Function Attrs: mustprogress nofree norecurse nosync nounwind willreturn memory(argmem: readwrite) uwtable
define internal noundef range(i32 -1, 2) i32 @_ZL15luauF_vectordotP9lua_StateP10lua_TValueS2_iS2_i(ptr readnone captures(none) %0, ptr noundef writeonly captures(none) %1, ptr noundef readonly captures(none) %2, i32 noundef %3, ptr noundef readonly captures(none) %4, i32 noundef %5) #1 {
  %7 = icmp sgt i32 %5, 1
  %8 = icmp slt i32 %3, 2
  %or.cond = and i1 %8, %7
  br i1 %or.cond, label %9, label %33

9:                                                ; preds = %6
  %10 = getelementptr inbounds nuw i8, ptr %2, i64 12
  %11 = load i32, ptr %10, align 4, !tbaa !4
  %12 = icmp eq i32 %11, 4
  br i1 %12, label %13, label %33

13:                                               ; preds = %9
  %14 = getelementptr inbounds nuw i8, ptr %4, i64 12
  %15 = load i32, ptr %14, align 4, !tbaa !4
  %16 = icmp eq i32 %15, 4
  br i1 %16, label %17, label %33

17:                                               ; preds = %13
  %18 = load float, ptr %2, align 4, !tbaa !51
  %19 = load float, ptr %4, align 4, !tbaa !51
  %20 = getelementptr inbounds nuw i8, ptr %2, i64 4
  %21 = load float, ptr %20, align 4, !tbaa !51
  %22 = getelementptr inbounds nuw i8, ptr %4, i64 4
  %23 = load float, ptr %22, align 4, !tbaa !51
  %24 = fmul float %21, %23
  %25 = tail call float @llvm.fmuladd.f32(float %18, float %19, float %24)
  %26 = getelementptr inbounds nuw i8, ptr %2, i64 8
  %27 = load float, ptr %26, align 4, !tbaa !51
  %28 = getelementptr inbounds nuw i8, ptr %4, i64 8
  %29 = load float, ptr %28, align 4, !tbaa !51
  %30 = tail call float @llvm.fmuladd.f32(float %27, float %29, float %25)
  %31 = fpext float %30 to double
  store double %31, ptr %1, align 8, !tbaa !9
  %32 = getelementptr inbounds nuw i8, ptr %1, i64 12
  store i32 3, ptr %32, align 4, !tbaa !4
  br label %33

33:                                               ; preds = %6, %9, %13, %17
  %.0 = phi i32 [ 1, %17 ], [ -1, %13 ], [ -1, %9 ], [ -1, %6 ]
  ret i32 %.0
}